Certificate:
    Data:
        Version: 3 (0x2)
        Serial Number: 1 (0x1)
    Signature Algorithm: sha256WithRSAEncryption
        Issuer: C=CN, ST=JiangSu, L=SuZhou, O=Castles, OU=Castles, CN=winter/emailAddress=yindong08@gmail.com
        Validity
            Not Before: Mar 15 08:06:59 2019 GMT
            Not After : Mar 14 08:06:59 2020 GMT
        Subject: C=CN, ST=JiangSu, O=Castles, OU=Castles, CN=winter/emailAddress=yindong08@gmail.com
        Subject Public Key Info:
            Public Key Algorithm: rsaEncryption
                Public-Key: (1024 bit)
                Modulus:
                    00:b2:39:f6:d6:0e:fd:fa:f1:4b:b7:25:8c:ff:8f:
                    f9:8f:50:54:35:df:ea:c3:6b:ec:9d:43:a5:ec:9e:
                    3e:b3:ec:cc:9c:37:27:ce:84:7a:06:66:85:9c:e4:
                    8e:49:b1:9e:99:c8:e2:ca:10:8c:66:28:2f:de:79:
                    aa:f9:80:a4:56:ab:dd:a0:83:6b:65:3b:97:ac:63:
                    df:22:92:ff:7a:77:b4:87:fd:09:f5:aa:ba:0d:ef:
                    1e:5c:e0:01:75:24:56:29:84:8c:1e:a0:33:4e:88:
                    4b:d0:95:0b:08:b2:07:2a:50:a9:d0:54:2b:5e:04:
                    75:24:7f:15:83:91:23:75:35
                Exponent: 65537 (0x10001)
        X509v3 extensions:
            X509v3 Basic Constraints: 
                CA:FALSE
            Netscape Comment: 
                OpenSSL Generated Certificate
            X509v3 Subject Key Identifier: 
                6F:E7:F8:C3:B9:31:70:93:2D:DF:3B:3C:79:96:2C:E2:CE:4E:80:73
            X509v3 Authority Key Identifier: 
                DirName:/C=CN/ST=JiangSu/L=SuZhou/O=Castles/OU=Castles/CN=winter/emailAddress=yindong08@gmail.com
                serial:EC:3A:B5:E2:D8:24:20:63

    Signature Algorithm: sha256WithRSAEncryption
         78:9e:df:19:88:a0:30:33:07:12:29:66:27:16:bc:5a:81:82:
         d5:7d:93:b6:c6:6d:5f:0e:77:48:4d:5d:4e:ba:de:98:bb:09:
         a6:27:21:e3:4b:b3:74:f5:9e:8c:6b:f7:f8:79:b2:6c:a6:f1:
         c1:90:1c:a6:37:e4:f8:80:a5:eb:1a:d9:43:a4:eb:87:b2:0d:
         05:69:fa:18:57:9f:c9:b1:09:b0:3f:22:47:18:6c:d2:06:b3:
         6b:d6:55:59:59:a0:aa:cf:70:07:db:23:a0:78:34:5a:0a:9c:
         15:73:bd:f2:cd:68:27:9c:da:1e:95:f8:e6:96:69:59:cf:06:
         d7:63:a1:d0:b2:8e:16:4e:fe:54:b2:38:0a:57:a0:e2:90:55:
         98:b3:15:57:12:7d:40:4e:36:cf:a9:2b:ac:aa:c6:b8:dd:de:
         5e:9b:59:fb:dd:56:15:65:cd:5e:0e:be:5c:2a:f5:71:34:ee:
         e2:73:98:c9:c3:fb:fc:45:4a:8a:f3:e8:c0:50:af:b4:ac:68:
         cd:ab:32:7e:6d:b0:45:b1:05:a4:ec:b9:c9:8c:3a:ad:3e:13:
         94:42:38:f2:d3:cc:84:55:08:e7:3e:91:56:1d:34:d6:71:20:
         cd:91:3f:fc:fa:12:61:a5:e2:d7:05:9d:2b:9d:7c:a7:d3:24:
         84:cc:e0:1c
-----BEGIN CERTIFICATE-----
MIIEAjCCAuqgAwIBAgIBATANBgkqhkiG9w0BAQsFADCBiTELMAkGA1UEBhMCQ04x
EDAOBgNVBAgMB0ppYW5nU3UxDzANBgNVBAcMBlN1WmhvdTEQMA4GA1UECgwHQ2Fz
dGxlczEQMA4GA1UECwwHQ2FzdGxlczEPMA0GA1UEAwwGd2ludGVyMSIwIAYJKoZI
hvcNAQkBFhN5aW5kb25nMDhAZ21haWwuY29tMB4XDTE5MDMxNTA4MDY1OVoXDTIw
MDMxNDA4MDY1OVoweDELMAkGA1UEBhMCQ04xEDAOBgNVBAgMB0ppYW5nU3UxEDAO
BgNVBAoMB0Nhc3RsZXMxEDAOBgNVBAsMB0Nhc3RsZXMxDzANBgNVBAMMBndpbnRl
cjEiMCAGCSqGSIb3DQEJARYTeWluZG9uZzA4QGdtYWlsLmNvbTCBnzANBgkqhkiG
9w0BAQEFAAOBjQAwgYkCgYEAsjn21g79+vFLtyWM/4/5j1BUNd/qw2vsnUOl7J4+
s+zMnDcnzoR6BmaFnOSOSbGemcjiyhCMZigv3nmq+YCkVqvdoINrZTuXrGPfIpL/
ene0h/0J9aq6De8eXOABdSRWKYSMHqAzTohL0JULCLIHKlCp0FQrXgR1JH8Vg5Ej
dTUCAwEAAaOCAQcwggEDMAkGA1UdEwQCMAAwLAYJYIZIAYb4QgENBB8WHU9wZW5T
U0wgR2VuZXJhdGVkIENlcnRpZmljYXRlMB0GA1UdDgQWBBRv5/jDuTFwky3fOzx5
lizizk6AczCBqAYDVR0jBIGgMIGdoYGPpIGMMIGJMQswCQYDVQQGEwJDTjEQMA4G
A1UECAwHSmlhbmdTdTEPMA0GA1UEBwwGU3VaaG91MRAwDgYDVQQKDAdDYXN0bGVz
MRAwDgYDVQQLDAdDYXN0bGVzMQ8wDQYDVQQDDAZ3aW50ZXIxIjAgBgkqhkiG9w0B
CQEWE3lpbmRvbmcwOEBnbWFpbC5jb22CCQDsOrXi2CQgYzANBgkqhkiG9w0BAQsF
AAOCAQEAeJ7fGYigMDMHEilmJxa8WoGC1X2TtsZtXw53SE1dTrremLsJpich40uz
dPWejGv3+HmybKbxwZAcpjfk+ICl6xrZQ6Trh7INBWn6GFefybEJsD8iRxhs0gaz
a9ZVWVmgqs9wB9sjoHg0WgqcFXO98s1oJ5zaHpX45pZpWc8G12Oh0LKOFk7+VLI4
Cleg4pBVmLMVVxJ9QE42z6krrKrGuN3eXptZ+91WFWXNXg6+XCr1cTTu4nOYycP7
/EVKivPowFCvtKxozasyfm2wRbEFpOy5yYw6rT4TlEI48tPMhFUI5z6RVh001nEg
zZE//PoSYaXi1wWdK518p9MkhMzgHA==
-----END CERTIFICATE-----
-----BEGIN RSA PRIVATE KEY-----
MIICXAIBAAKBgQCyOfbWDv368Uu3JYz/j/mPUFQ13+rDa+ydQ6Xsnj6z7MycNyfO
hHoGZoWc5I5JsZ6ZyOLKEIxmKC/eear5gKRWq92gg2tlO5esY98ikv96d7SH/Qn1
qroN7x5c4AF1JFYphIweoDNOiEvQlQsIsgcqUKnQVCteBHUkfxWDkSN1NQIDAQAB
AoGAIigZtkyJQF6eNCtuKkxdd6ndebXAOFOmtT0Rv5dUTQdE72tipaGeATwEv1zO
KDFyQ+bMEA272pg5FFoc+lQ9Kk0I2fBVTU8QyeQUTtEZHbMSkESWFRPsqOlg+vHP
B4ONEIZ2/gInATOHcFuf7RUo/YnUsQwlOI3+5gOvjR4h7MECQQDmkpGwavaz/YPK
HGrbW3ERQn/W1RBKLr7OmmJQLIpS5ROU+UpfOQMW945loXJkl0DDJ8cueUiZhFRy
Etfm5zF3AkEAxeGUq46qch4NbxOI+QczOHU5kqxiEzg23xdLYaVwzHTqfZs3iEtt
y9AaVjbco7vXjxfTpbsee78pWoMks2LZswJAE/ZYmreICGlIgbUYI0m1blMdklH8
CRAnAOgo3twcVbTzjxBOOhRLii+AqpfhuYfG2Z6WBhYGDRSB4yZyftFBXQJBAII3
gzUuKf30xtRcn5t44Hz7r0pVBCkvqfQ/CQ0V6Ney7IiBtxaKxJMFu/8WFTXuK9jv
TgjWzSWT02vLt0ARAb8CQF7TUxQHAsO2A7nseqcc9wDqHMAEcT7tk0Y1Y88FIJuQ
xtyFqzCSSZj7rmTDIB6txxKtaI1hCJX3PjNsTfJO2Ww=
-----END RSA PRIVATE KEY-----
